target datalayout = "e-m:e-p270:32:32-p271:32:32-p272:64:64-i64:64-i128:128-f80:128-n8:16:32:64-S128"
target triple = "x86_64-pc-linux-gnu"

%struct.grep_opt = type { ptr, ptr, ptr, ptr, ptr, ptr, i32, i32, i32, i32, i32, i32, i32, i32, i32, i32, i32, i32, i32, i32, i32, i32, i32, i32, i32, i32, i32, i32, i32, i32, i32, i32, [9 x [75 x i8]], i32, i32, i32, i32, i32, i32, i32, ptr, ptr, ptr }
%struct.grep_pat = type { ptr, ptr, i32, i32, ptr, i64, i32, %struct.re_pattern_buffer, ptr, ptr, ptr, ptr, ptr, i32, i8 }
%struct.re_pattern_buffer = type { ptr, i64, i64, i64, ptr, ptr, i64, i8 }

@.str.11 = private unnamed_addr constant [7 x i8] c"header\00", align 1

; Function Attrs: nounwind uwtable
define internal void @do_append_grep_pat(ptr noundef %0, ptr noundef %1) #0 {
  %3 = alloca ptr, align 8
  %4 = alloca ptr, align 8
  %5 = alloca ptr, align 8
  %6 = alloca i64, align 8
  %7 = alloca ptr, align 8
  %8 = alloca ptr, align 8
  %9 = alloca i32, align 4
  store ptr %0, ptr %3, align 8, !tbaa !56
  store ptr %1, ptr %4, align 8, !tbaa !44
  %10 = load ptr, ptr %4, align 8, !tbaa !44
  %11 = load ptr, ptr %3, align 8, !tbaa !56
  %12 = load ptr, ptr %11, align 8, !tbaa !58
  store ptr %10, ptr %12, align 8, !tbaa !44
  %13 = load ptr, ptr %4, align 8, !tbaa !44
  %14 = getelementptr inbounds nuw %struct.grep_pat, ptr %13, i32 0, i32 0
  %15 = load ptr, ptr %3, align 8, !tbaa !56
  store ptr %14, ptr %15, align 8, !tbaa !58
  %16 = load ptr, ptr %4, align 8, !tbaa !44
  %17 = getelementptr inbounds nuw %struct.grep_pat, ptr %16, i32 0, i32 0
  store ptr null, ptr %17, align 8, !tbaa !59
  %18 = load ptr, ptr %4, align 8, !tbaa !44
  %19 = getelementptr inbounds nuw %struct.grep_pat, ptr %18, i32 0, i32 3
  %20 = load i32, ptr %19, align 4, !tbaa !54
  switch i32 %20, label %95 [
    i32 0, label %21
    i32 1, label %21
    i32 2, label %21
  ]

21:                                               ; preds = %2, %2, %2
  br label %22

22:                                               ; preds = %93, %21
  call void @llvm.lifetime.start.p0(i64 8, ptr %5) #11
  call void @llvm.lifetime.start.p0(i64 8, ptr %6) #11
  store i64 0, ptr %6, align 8, !tbaa !11
  call void @llvm.lifetime.start.p0(i64 8, ptr %7) #11
  %23 = load ptr, ptr %4, align 8, !tbaa !44
  %24 = getelementptr inbounds nuw %struct.grep_pat, ptr %23, i32 0, i32 4
  %25 = load ptr, ptr %24, align 8, !tbaa !46
  %26 = load ptr, ptr %4, align 8, !tbaa !44
  %27 = getelementptr inbounds nuw %struct.grep_pat, ptr %26, i32 0, i32 5
  %28 = load i64, ptr %27, align 8, !tbaa !51
  %29 = getelementptr inbounds nuw i8, ptr %25, i64 %28
  store ptr %29, ptr %7, align 8, !tbaa !9
  call void @llvm.lifetime.start.p0(i64 8, ptr %8) #11
  store ptr null, ptr %8, align 8, !tbaa !9
  br label %30

30:                                               ; preds = %45, %22
  %31 = load i64, ptr %6, align 8, !tbaa !11
  %32 = add i64 %31, 1
  store i64 %32, ptr %6, align 8, !tbaa !11
  %33 = load ptr, ptr %4, align 8, !tbaa !44
  %34 = getelementptr inbounds nuw %struct.grep_pat, ptr %33, i32 0, i32 5
  %35 = load i64, ptr %34, align 8, !tbaa !51
  %36 = icmp ule i64 %32, %35
  br i1 %36, label %37, label %46

37:                                               ; preds = %30
  %38 = load ptr, ptr %7, align 8, !tbaa !9
  %39 = getelementptr inbounds i8, ptr %38, i32 -1
  store ptr %39, ptr %7, align 8, !tbaa !9
  %40 = load i8, ptr %39, align 1, !tbaa !36
  %41 = sext i8 %40 to i32
  %42 = icmp eq i32 %41, 10
  br i1 %42, label %43, label %45

43:                                               ; preds = %37
  %44 = load ptr, ptr %7, align 8, !tbaa !9
  store ptr %44, ptr %8, align 8, !tbaa !9
  br label %46

45:                                               ; preds = %37
  br label %30, !llvm.loop !60

46:                                               ; preds = %43, %30
  %47 = load ptr, ptr %8, align 8, !tbaa !9
  %48 = icmp ne ptr %47, null
  br i1 %48, label %50, label %49

49:                                               ; preds = %46
  store i32 3, ptr %9, align 4
  br label %91

50:                                               ; preds = %46
  %51 = load ptr, ptr %8, align 8, !tbaa !9
  %52 = getelementptr inbounds i8, ptr %51, i64 1
  %53 = load i64, ptr %6, align 8, !tbaa !11
  %54 = sub i64 %53, 1
  %55 = load ptr, ptr %4, align 8, !tbaa !44
  %56 = getelementptr inbounds nuw %struct.grep_pat, ptr %55, i32 0, i32 1
  %57 = load ptr, ptr %56, align 8, !tbaa !52
  %58 = load ptr, ptr %4, align 8, !tbaa !44
  %59 = getelementptr inbounds nuw %struct.grep_pat, ptr %58, i32 0, i32 2
  %60 = load i32, ptr %59, align 8, !tbaa !53
  %61 = load ptr, ptr %4, align 8, !tbaa !44
  %62 = getelementptr inbounds nuw %struct.grep_pat, ptr %61, i32 0, i32 3
  %63 = load i32, ptr %62, align 4, !tbaa !54
  %64 = load ptr, ptr %4, align 8, !tbaa !44
  %65 = getelementptr inbounds nuw %struct.grep_pat, ptr %64, i32 0, i32 6
  %66 = load i32, ptr %65, align 8, !tbaa !55
  %67 = call ptr @create_grep_pat(ptr noundef %52, i64 noundef %54, ptr noundef %57, i32 noundef %60, i32 noundef %63, i32 noundef %66)
  store ptr %67, ptr %5, align 8, !tbaa !44
  %68 = load ptr, ptr %4, align 8, !tbaa !44
  %69 = getelementptr inbounds nuw %struct.grep_pat, ptr %68, i32 0, i32 0
  %70 = load ptr, ptr %69, align 8, !tbaa !59
  %71 = load ptr, ptr %5, align 8, !tbaa !44
  %72 = getelementptr inbounds nuw %struct.grep_pat, ptr %71, i32 0, i32 0
  store ptr %70, ptr %72, align 8, !tbaa !59
  %73 = load ptr, ptr %4, align 8, !tbaa !44
  %74 = getelementptr inbounds nuw %struct.grep_pat, ptr %73, i32 0, i32 0
  %75 = load ptr, ptr %74, align 8, !tbaa !59
  %76 = icmp ne ptr %75, null
  br i1 %76, label %81, label %77

77:                                               ; preds = %50
  %78 = load ptr, ptr %5, align 8, !tbaa !44
  %79 = getelementptr inbounds nuw %struct.grep_pat, ptr %78, i32 0, i32 0
  %80 = load ptr, ptr %3, align 8, !tbaa !56
  store ptr %79, ptr %80, align 8, !tbaa !58
  br label %81

81:                                               ; preds = %77, %50
  %82 = load ptr, ptr %5, align 8, !tbaa !44
  %83 = load ptr, ptr %4, align 8, !tbaa !44
  %84 = getelementptr inbounds nuw %struct.grep_pat, ptr %83, i32 0, i32 0
  store ptr %82, ptr %84, align 8, !tbaa !59
  %85 = load ptr, ptr %8, align 8, !tbaa !9
  store i8 0, ptr %85, align 1, !tbaa !36
  %86 = load i64, ptr %6, align 8, !tbaa !11
  %87 = load ptr, ptr %4, align 8, !tbaa !44
  %88 = getelementptr inbounds nuw %struct.grep_pat, ptr %87, i32 0, i32 5
  %89 = load i64, ptr %88, align 8, !tbaa !51
  %90 = sub i64 %89, %86
  store i64 %90, ptr %88, align 8, !tbaa !51
  store i32 0, ptr %9, align 4
  br label %91

91:                                               ; preds = %81, %49
  call void @llvm.lifetime.end.p0(i64 8, ptr %8) #11
  call void @llvm.lifetime.end.p0(i64 8, ptr %7) #11
  call void @llvm.lifetime.end.p0(i64 8, ptr %6) #11
  call void @llvm.lifetime.end.p0(i64 8, ptr %5) #11
  %92 = load i32, ptr %9, align 4
  switch i32 %92, label %97 [
    i32 0, label %93
    i32 3, label %94
  ]

93:                                               ; preds = %91
  br label %22

94:                                               ; preds = %91
  br label %96

95:                                               ; preds = %2
  br label %96

96:                                               ; preds = %95, %94
  ret void

97:                                               ; preds = %91
  unreachable
}

; Function Attrs: nounwind uwtable
define internal ptr @create_grep_pat(ptr noundef %0, i64 noundef %1, ptr noundef %2, i32 noundef %3, i32 noundef %4, i32 noundef %5) #0 {
  %7 = alloca ptr, align 8
  %8 = alloca i64, align 8
  %9 = alloca ptr, align 8
  %10 = alloca i32, align 4
  %11 = alloca i32, align 4
  %12 = alloca i32, align 4
  %13 = alloca ptr, align 8
  store ptr %0, ptr %7, align 8, !tbaa !9
  store i64 %1, ptr %8, align 8, !tbaa !11
  store ptr %2, ptr %9, align 8, !tbaa !9
  store i32 %3, ptr %10, align 4, !tbaa !33
  store i32 %4, ptr %11, align 4, !tbaa !33
  store i32 %5, ptr %12, align 4, !tbaa !33
  call void @llvm.lifetime.start.p0(i64 8, ptr %13) #11
  %14 = call ptr @xcalloc(i64 noundef 1, i64 noundef 160)
  store ptr %14, ptr %13, align 8, !tbaa !44
  %15 = load ptr, ptr %7, align 8, !tbaa !9
  %16 = load i64, ptr %8, align 8, !tbaa !11
  %17 = call ptr @xmemdupz(ptr noundef %15, i64 noundef %16)
  %18 = load ptr, ptr %13, align 8, !tbaa !44
  %19 = getelementptr inbounds nuw %struct.grep_pat, ptr %18, i32 0, i32 4
  store ptr %17, ptr %19, align 8, !tbaa !46
  %20 = load i64, ptr %8, align 8, !tbaa !11
  %21 = load ptr, ptr %13, align 8, !tbaa !44
  %22 = getelementptr inbounds nuw %struct.grep_pat, ptr %21, i32 0, i32 5
  store i64 %20, ptr %22, align 8, !tbaa !51
  %23 = load ptr, ptr %9, align 8, !tbaa !9
  %24 = load ptr, ptr %13, align 8, !tbaa !44
  %25 = getelementptr inbounds nuw %struct.grep_pat, ptr %24, i32 0, i32 1
  store ptr %23, ptr %25, align 8, !tbaa !52
  %26 = load i32, ptr %10, align 4, !tbaa !33
  %27 = load ptr, ptr %13, align 8, !tbaa !44
  %28 = getelementptr inbounds nuw %struct.grep_pat, ptr %27, i32 0, i32 2
  store i32 %26, ptr %28, align 8, !tbaa !53
  %29 = load i32, ptr %11, align 4, !tbaa !33
  %30 = load ptr, ptr %13, align 8, !tbaa !44
  %31 = getelementptr inbounds nuw %struct.grep_pat, ptr %30, i32 0, i32 3
  store i32 %29, ptr %31, align 4, !tbaa !54
  %32 = load i32, ptr %12, align 4, !tbaa !33
  %33 = load ptr, ptr %13, align 8, !tbaa !44
  %34 = getelementptr inbounds nuw %struct.grep_pat, ptr %33, i32 0, i32 6
  store i32 %32, ptr %34, align 8, !tbaa !55
  %35 = load ptr, ptr %13, align 8, !tbaa !44
  call void @llvm.lifetime.end.p0(i64 8, ptr %13) #11
  ret ptr %35
}

; Function Attrs: nounwind uwtable
define dso_local void @append_header_grep_pattern(ptr noundef %0, i32 noundef %1, ptr noundef %2) #0 {
  %4 = alloca ptr, align 8
  %5 = alloca i32, align 4
  %6 = alloca ptr, align 8
  %7 = alloca ptr, align 8
  store ptr %0, ptr %4, align 8, !tbaa !19
  store i32 %1, ptr %5, align 4, !tbaa !33
  store ptr %2, ptr %6, align 8, !tbaa !9
  call void @llvm.lifetime.start.p0(i64 8, ptr %7) #11
  %8 = load ptr, ptr %6, align 8, !tbaa !9
  %9 = load ptr, ptr %6, align 8, !tbaa !9
  %10 = call i64 @strlen(ptr noundef %9) #12
  %11 = load i32, ptr %5, align 4, !tbaa !33
  %12 = call ptr @create_grep_pat(ptr noundef %8, i64 noundef %10, ptr noundef @.str.11, i32 noundef 0, i32 noundef 1, i32 noundef %11)
  store ptr %12, ptr %7, align 8, !tbaa !44
  %13 = load i32, ptr %5, align 4, !tbaa !33
  %14 = icmp eq i32 %13, 2
  br i1 %14, label %15, label %18

15:                                               ; preds = %3
  %16 = load ptr, ptr %4, align 8, !tbaa !19
  %17 = getelementptr inbounds nuw %struct.grep_opt, ptr %16, i32 0, i32 20
  store i32 1, ptr %17, align 8, !tbaa !45
  br label %18

18:                                               ; preds = %15, %3
  %19 = load ptr, ptr %4, align 8, !tbaa !19
  %20 = getelementptr inbounds nuw %struct.grep_opt, ptr %19, i32 0, i32 3
  %21 = load ptr, ptr %7, align 8, !tbaa !44
  call void @do_append_grep_pat(ptr noundef %20, ptr noundef %21)
  call void @llvm.lifetime.end.p0(i64 8, ptr %7) #11
  ret void
}