; Function Attrs: nounwind uwtable
define dso_local void @append_header_grep_pattern(ptr noundef captures(none) %0, i32 noundef %1, ptr noundef %2) local_unnamed_addr #0 {
  %4 = tail call i64 @strlen(ptr noundef nonnull dereferenceable(1) %2) #19
  %5 = tail call ptr @xcalloc(i64 noundef 1, i64 noundef 160) #18
  %6 = tail call ptr @xmemdupz(ptr noundef nonnull %2, i64 noundef %4) #18
  %7 = getelementptr inbounds nuw i8, ptr %5, i64 24
  store ptr %6, ptr %7, align 8, !tbaa !30
  %8 = getelementptr inbounds nuw i8, ptr %5, i64 32
  store i64 %4, ptr %8, align 8, !tbaa !36
  %9 = getelementptr inbounds nuw i8, ptr %5, i64 8
  store ptr @.str.11, ptr %9, align 8, !tbaa !37
  %10 = getelementptr inbounds nuw i8, ptr %5, i64 16
  store i32 0, ptr %10, align 8, !tbaa !38
  %11 = getelementptr inbounds nuw i8, ptr %5, i64 20
  store i32 1, ptr %11, align 4, !tbaa !39
  %12 = getelementptr inbounds nuw i8, ptr %5, i64 40
  store i32 %1, ptr %12, align 8, !tbaa !40
  %13 = icmp eq i32 %1, 2
  br i1 %13, label %14, label %.preheader.i

14:                                               ; preds = %3
  %15 = getelementptr inbounds nuw i8, ptr %0, i64 104
  store i32 1, ptr %15, align 8, !tbaa !41
  br label %.preheader.i

.preheader.i:                                     ; preds = %3, %14
  %16 = getelementptr inbounds nuw i8, ptr %0, i64 24
  %17 = load ptr, ptr %16, align 8, !tbaa !42
  store ptr %5, ptr %17, align 8, !tbaa !43
  store ptr %5, ptr %16, align 8, !tbaa !42
  store ptr null, ptr %5, align 8, !tbaa !44
  br label %18

18:                                               ; preds = %43, %.preheader.i
  %19 = phi ptr [ %6, %.preheader.i ], [ %.pre, %43 ]
  %20 = phi i64 [ %4, %.preheader.i ], [ %45, %43 ]
  %21 = getelementptr inbounds nuw i8, ptr %19, i64 %20
  br label %22

22:                                               ; preds = %24, %18
  %.031.i = phi i64 [ 0, %18 ], [ %23, %24 ]
  %.030.i = phi ptr [ %21, %18 ], [ %25, %24 ]
  %23 = add i64 %.031.i, 1
  %.not.i = icmp ugt i64 %23, %20
  br i1 %.not.i, label %do_append_grep_pat.exit, label %24

24:                                               ; preds = %22
  %25 = getelementptr inbounds i8, ptr %.030.i, i64 -1
  %26 = load i8, ptr %25, align 1, !tbaa !23
  %27 = icmp eq i8 %26, 10
  br i1 %27, label %28, label %22, !llvm.loop !45

28:                                               ; preds = %24
  %29 = load ptr, ptr %9, align 8, !tbaa !37
  %30 = load i32, ptr %10, align 8, !tbaa !38
  %31 = load i32, ptr %11, align 4, !tbaa !39
  %32 = load i32, ptr %12, align 8, !tbaa !40
  %33 = tail call ptr @xcalloc(i64 noundef 1, i64 noundef 160) #18
  %34 = tail call ptr @xmemdupz(ptr noundef nonnull %.030.i, i64 noundef %.031.i) #18
  %35 = getelementptr inbounds nuw i8, ptr %33, i64 24
  store ptr %34, ptr %35, align 8, !tbaa !30
  %36 = getelementptr inbounds nuw i8, ptr %33, i64 32
  store i64 %.031.i, ptr %36, align 8, !tbaa !36
  %37 = getelementptr inbounds nuw i8, ptr %33, i64 8
  store ptr %29, ptr %37, align 8, !tbaa !37
  %38 = getelementptr inbounds nuw i8, ptr %33, i64 16
  store i32 %30, ptr %38, align 8, !tbaa !38
  %39 = getelementptr inbounds nuw i8, ptr %33, i64 20
  store i32 %31, ptr %39, align 4, !tbaa !39
  %40 = getelementptr inbounds nuw i8, ptr %33, i64 40
  store i32 %32, ptr %40, align 8, !tbaa !40
  %41 = load ptr, ptr %5, align 8, !tbaa !44
  store ptr %41, ptr %33, align 8, !tbaa !44
  %.not34.i = icmp eq ptr %41, null
  br i1 %.not34.i, label %42, label %43

42:                                               ; preds = %28
  store ptr %33, ptr %16, align 8, !tbaa !42
  br label %43

43:                                               ; preds = %42, %28
  store ptr %33, ptr %5, align 8, !tbaa !44
  store i8 0, ptr %25, align 1, !tbaa !23
  %44 = load i64, ptr %8, align 8, !tbaa !36
  %45 = sub i64 %44, %23
  store i64 %45, ptr %8, align 8, !tbaa !36
  %.pre = load ptr, ptr %7, align 8, !tbaa !30
  br label %18

do_append_grep_pat.exit:                          ; preds = %22
  ret void
}